; Function Attrs: mustprogress nofree norecurse nosync nounwind sspstrong willreturn memory(argmem: read) uwtable
define internal range(i64 0, 2) i64 @pm_encoding_windows_1254_alpha_char(ptr noundef readonly captures(none) %0, i64 %1) #2 {
  %3 = load i8, ptr %0, align 1, !tbaa !7
  %4 = zext i8 %3 to i64
  %5 = getelementptr [256 x i8], ptr @pm_encoding_windows_1254_table, i64 0, i64 %4
  %6 = load i8, ptr %5, align 1, !tbaa !7
  %7 = and i8 %6, 1
  %8 = zext nneg i8 %7 to i64
  ret i64 %8
}